Microchip MPLAB XC8 Compiler V2.32

Linker command line:

-W-3 --edf=C:\Program Files\Microchip\xc8\v2.32\pic\dat\en_msgs.txt -cn \
  -h+dist/default/production\pic16f1459uart.X.production.sym \
  --cmf=dist/default/production\pic16f1459uart.X.production.cmf -z \
  -Q16F1459 -oC:\Users\Stefan\AppData\Local\Temp\xcAs2is.4 \
  --defsym=__MPLAB_BUILD=1 \
  -Mdist/default/production/pic16f1459uart.X.production.map -E1 \
  -ver=XC8 Compiler --acfsm=1493 -ASTACK=02220h-023EFh -pstack=STACK \
  -ACODE=00h-07FFhx4 -ASTRCODE=00h-01FFFh -ASTRING=00h-0FFhx32 \
  -ACONST=00h-0FFhx32 -AENTRY=00h-0FFhx32 -ACOMMON=070h-07Fh \
  -ABANK0=020h-06Fh -ABANK1=0A0h-0EFh -ABANK2=0120h-016Fh \
  -ABANK3=01A0h-01EFh -ABANK4=0220h-026Fh -ABANK5=02A0h-02EFh \
  -ABANK6=0320h-036Fh -ABANK7=03A0h-03EFh -ABANK8=0420h-046Fh \
  -ABANK9=04A0h-04EFh -ABANK10=0520h-056Fh -ABANK11=05A0h-05EFh \
  -ABANK12=0620h-064Fh -ABIGRAM=02000h-023EFh \
  -ARAM=020h-06Fh,0A0h-0EFh,0120h-016Fh,01A0h-01EFh,0220h-026Fh,02A0h-02EFh,0320h-036Fh,03A0h-03EFh,0420h-046Fh,04A0h-04EFh,0520h-056Fh,05A0h-05EFh,0620h-064Fh \
  -AABS1=020h-07Fh,0A0h-0EFh,0120h-016Fh,01A0h-01EFh,0220h-026Fh,02A0h-02EFh,0320h-036Fh,03A0h-03EFh,0420h-046Fh,04A0h-04EFh,0520h-056Fh,05A0h-05EFh,0620h-064Fh \
  -ASFR0=00h-01Fh -ASFR1=080h-09Fh -ASFR2=0100h-011Fh -ASFR3=0180h-019Fh \
  -ASFR4=0200h-021Fh -ASFR5=0280h-029Fh -ASFR6=0300h-031Fh \
  -ASFR7=0380h-039Fh -ASFR8=0400h-041Fh -ASFR9=0480h-049Fh \
  -ASFR10=0500h-051Fh -ASFR11=0580h-059Fh -ASFR12=0600h-061Fh \
  -ASFR13=0680h-06EFh -ASFR14=0700h-076Fh -ASFR15=0780h-07EFh \
  -ASFR16=0800h-086Fh -ASFR17=0880h-08EFh -ASFR18=0900h-096Fh \
  -ASFR19=0980h-09EFh -ASFR20=0A00h-0A6Fh -ASFR21=0A80h-0AEFh \
  -ASFR22=0B00h-0B6Fh -ASFR23=0B80h-0BEFh -ASFR24=0C00h-0C6Fh \
  -ASFR25=0C80h-0CEFh -ASFR26=0D00h-0D6Fh -ASFR27=0D80h-0DEFh \
  -ASFR28=0E00h-0E6Fh -ASFR29=0E80h-0EEFh -ASFR30=0F00h-0F6Fh \
  -ASFR31=0F80h-0FEFh -ACONFIG=08007h-08008h -DCONFIG=2 \
  -AIDLOC=08000h-08003h -DIDLOC=2 -DCODE=2 -DSTRCODE=2 -DSTRING=2 -DCONST=2 \
  -DENTRY=2 -preset_vec=00h,intentry=04h,init,end_init -ppowerup=CODE \
  -pcinit=CODE -pfunctab=ENTRY -k \
  C:\Users\Stefan\AppData\Local\Temp\xcAs2is.o \
  dist/default/production\pic16f1459uart.X.production.o 

Object code version is 3.11

Machine type is 16F1459



                Name                               Link     Load   Length Selector   Space Scale
C:\Users\Stefan\AppData\Local\Temp\xcAs2is.o
                end_init                             3C       3C        2        8       0
                reset_vec                             0        0        2        0       0
                config                             8007     8007        2        0       4
dist/default/production\pic16f1459uart.X.production.o
                cinit                                3E       3E       36        8       0
                intentry                              4        4       38        8       0
                config                             8007     8007        2        0       4
                text54                             1718     1718       1A     2E30       0
                text53                             1676     1676        4     2CEC       0
                text52                              7FE      7FE        1        8       0
                text51                             167A     167A        4     2CF4       0
                text50                             178D     178D       21     2F1A       0
                text49                             16BB     16BB        F     2D76       0
                text48                              91C      91C       3E     1238       0
                text47                              C72      C72       77     18E4       0
                text46                              D60      D60       78     1AC0       0
                text45                              CE9      CE9       77     19D2       0
                text44                              55C      55C       AC        8       0
                text43                              8E3      8E3       39     11C6       0
                text42                              95A      95A       44     12B4       0
                text41                             17AE     17AE       25     2F5C       0
                text40                              E60      E60       8A     1CC0       0
                text39                              8AC      8AC       37     1158       0
                text38                              C04      C04       6E     1808       0
                text37                              87A      87A       32     10F4       0
                text36                               74       74      15A        8       0
                text35                              EEA      EEA       8B     1DD4       0
                text34                              B9B      B9B       69     1736       0
                text33                              3DE      3DE       CA        8       0
                text32                              F75      F75       8B     1EEA       0
                text31                              DD8      DD8       88     1BB0       0
                text30                              AD6      AD6       60     15AC       0
                text29                              6B2      6B2       9F        8       0
                text28                              A2D      A2D       51     145A       0
                text27                              81E      81E       2E     103C       0
                text26                              A7E      A7E       58     14FC       0
                text25                              801      801       1D     1002       0
                text24                             17D3     17D3       2D     2FA6       0
                text23                             176D     176D       20     2EDA       0
                text22                              7DC      7DC       22        8       0
                text21                              608      608       AA        8       0
                text20                              1CE      1CE      126        8       0
                text18                             1682     1682        9     2D04       0
                text17                             168B     168B        9     2D16       0
                text16                             1694     1694        9     2D28       0
                text15                             169D     169D        9     2D3A       0
                text14                             16A6     16A6        9     2D4C       0
                text13                              99E      99E       44     133C       0
                text12                             16CA     16CA        F     2D94       0
                text11                             16FF     16FF       19     2DFE       0
                text10                             174E     174E       1F     2E9C       0
                text9                               4A8      4A8       B4        8       0
                text8                              167E     167E        4     2CFC       0
                text7                              16D9     16D9       13     2DB2       0
                text6                               751      751       8B        8       0
                text5                               2F4      2F4       EA        8       0
                text4                               84C      84C       2E     1098       0
                text3                               B36      B36       65     166C       0
                text2                              1732     1732       1C     2E64       0
                text1                               9E2      9E2       4B     13C4       0
                maintext                           16EC     16EC       13     2DD8       0
                cstackBANK0h                         58       58       15       58       1
                cstackCOMMON                         70       70        E       70       1
                cstackBANK1                          C0       C0        F       C0       1
                cstackBANK3                         1EB      1EB        4      1B0       1
                clrtext                            16AF     16AF        C     2D5E       0
                bssBANK6                            320      320       40      320       1
                bssBANK5                            2A0      2A0       40      2A0       1
                bssBANK4                            220      220       45      220       1
                bssBANK3                            1B0      1B0       3B      1B0       1
                bssBANK1                             CF       CF        1       C0       1
                bssBANK0h                            6D       6D        3       58       1
                stringtext7                        1818     1818        4     3000       0
                stringtext6                        1800     1800       12     3000       0
                stringtext5                        1077     1077       2E     2000       0
                stringtext4                        1043     1043       34     2000       0
                stringtext3                        1000     1000       43     2000       0
                stringtext2                        181C     181C        2     3000       0
                stringtext1                        1812     1812        6     3000       0

TOTAL           Name                               Link     Load   Length     Space
        CLASS   STACK          

        CLASS   CODE           
                end_init                             3C       3C        2         0
                cinit                                3E       3E       36         0
                intentry                              4        4       38         0
                reset_vec                             0        0        2         0
                text54                             1718     1718       1A         0
                text53                             1676     1676        4         0
                text52                              7FE      7FE        1         0
                text51                             167A     167A        4         0
                text50                             178D     178D       21         0
                text49                             16BB     16BB        F         0
                text48                              91C      91C       3E         0
                text47                              C72      C72       77         0
                text46                              D60      D60       78         0
                text45                              CE9      CE9       77         0
                text44                              55C      55C       AC         0
                text43                              8E3      8E3       39         0
                text42                              95A      95A       44         0
                text41                             17AE     17AE       25         0
                text40                              E60      E60       8A         0
                text39                              8AC      8AC       37         0
                text38                              C04      C04       6E         0
                text37                              87A      87A       32         0
                text36                               74       74      15A         0
                text35                              EEA      EEA       8B         0
                text34                              B9B      B9B       69         0
                text33                              3DE      3DE       CA         0
                text32                              F75      F75       8B         0
                text31                              DD8      DD8       88         0
                text30                              AD6      AD6       60         0
                text29                              6B2      6B2       9F         0
                text28                              A2D      A2D       51         0
                text27                              81E      81E       2E         0
                text26                              A7E      A7E       58         0
                text25                              801      801       1D         0
                text24                             17D3     17D3       2D         0
                text23                             176D     176D       20         0
                text22                              7DC      7DC       22         0
                text21                              608      608       AA         0
                text20                              1CE      1CE      126         0
                text18                             1682     1682        9         0
                text17                             168B     168B        9         0
                text16                             1694     1694        9         0
                text15                             169D     169D        9         0
                text14                             16A6     16A6        9         0
                text13                              99E      99E       44         0
                text12                             16CA     16CA        F         0
                text11                             16FF     16FF       19         0
                text10                             174E     174E       1F         0
                text9                               4A8      4A8       B4         0
                text8                              167E     167E        4         0
                text7                              16D9     16D9       13         0
                text6                               751      751       8B         0
                text5                               2F4      2F4       EA         0
                text4                               84C      84C       2E         0
                text3                               B36      B36       65         0
                text2                              1732     1732       1C         0
                text1                               9E2      9E2       4B         0
                maintext                           16EC     16EC       13         0
                clrtext                            16AF     16AF        C         0

        CLASS   STRCODE        
                stringtext7                        1818     1818        4         0
                stringtext6                        1800     1800       12         0
                stringtext5                        1077     1077       2E         0
                stringtext4                        1043     1043       34         0
                stringtext3                        1000     1000       43         0
                stringtext2                        181C     181C        2         0
                stringtext1                        1812     1812        6         0

        CLASS   STRING         

        CLASS   CONST          

        CLASS   ENTRY          

        CLASS   COMMON         
                cstackCOMMON                         70       70        E         1

        CLASS   BANK0          
                cstackBANK0h                         58       58       15         1
                bssBANK0h                            6D       6D        3         1

        CLASS   BANK1          
                cstackBANK1                          C0       C0        F         1
                bssBANK1                             CF       CF        1         1

        CLASS   BANK2          

        CLASS   BANK3          
                cstackBANK3                         1EB      1EB        4         1
                bssBANK3                            1B0      1B0       3B         1

        CLASS   BANK4          
                bssBANK4                            220      220       45         1

        CLASS   BANK5          
                bssBANK5                            2A0      2A0       40         1

        CLASS   BANK6          
                bssBANK6                            320      320       40         1

        CLASS   BANK7          

        CLASS   BANK8          

        CLASS   BANK9          

        CLASS   BANK10         

        CLASS   BANK11         

        CLASS   BANK12         

        CLASS   BIGRAM         

        CLASS   RAM            

        CLASS   ABS1           
                abs_s1                               20       20       38         1
                abs_s1                               7E       7E        2         1
                abs_s1                               A0       A0       20         1
                abs_s1                               D0       D0       20         1
                abs_s1                              120      120       50         1
                abs_s1                              1A0      1A0       10         1

        CLASS   SFR0           

        CLASS   SFR1           

        CLASS   SFR2           

        CLASS   SFR3           

        CLASS   SFR4           

        CLASS   SFR5           

        CLASS   SFR6           

        CLASS   SFR7           

        CLASS   SFR8           

        CLASS   SFR9           

        CLASS   SFR10          

        CLASS   SFR11          

        CLASS   SFR12          

        CLASS   SFR13          

        CLASS   SFR14          

        CLASS   SFR15          

        CLASS   SFR16          

        CLASS   SFR17          

        CLASS   SFR18          

        CLASS   SFR19          

        CLASS   SFR20          

        CLASS   SFR21          

        CLASS   SFR22          

        CLASS   SFR23          

        CLASS   SFR24          

        CLASS   SFR25          

        CLASS   SFR26          

        CLASS   SFR27          

        CLASS   SFR28          

        CLASS   SFR29          

        CLASS   SFR30          

        CLASS   SFR31          

        CLASS   CONFIG         
                config                             8007     8007        2         4

        CLASS   IDLOC          

        CLASS   BANK31         

        CLASS   BANK30         

        CLASS   BANK29         

        CLASS   BANK28         

        CLASS   BANK27         

        CLASS   BANK26         

        CLASS   BANK25         

        CLASS   BANK24         

        CLASS   BANK23         

        CLASS   BANK22         

        CLASS   BANK21         

        CLASS   BANK20         

        CLASS   BANK19         

        CLASS   BANK18         

        CLASS   BANK17         

        CLASS   BANK16         

        CLASS   BANK15         

        CLASS   BANK14         

        CLASS   BANK13         

        CLASS   EEDATA         



SEGMENTS        Name                           Load    Length   Top    Selector   Space  Class     Delta

                reset_vec                      000000  000002  000002         0       0  CODE        2
                intentry                       000004  0007FB  0007FF         8       0  CODE        2
                cstackBANK0h                   000058  000018  000070        58       1  BANK0       1
                cstackCOMMON                   000070  00000E  00007E        70       1  COMMON      1
                cstackBANK1                    0000C0  000010  0000D0        C0       1  BANK1       1
                bssBANK3                       0001B0  00003F  0001EF       1B0       1  BANK3       1
                bssBANK4                       000220  000045  000265       220       1  BANK4       1
                bssBANK5                       0002A0  000040  0002E0       2A0       1  BANK5       1
                bssBANK6                       000320  000040  000360       320       1  BANK6       1
                text25                         000801  00001D  00081E      1002       0  CODE        2
                text27                         00081E  00002E  00084C      103C       0  CODE        2
                text4                          00084C  00002E  00087A      1098       0  CODE        2
                text37                         00087A  000032  0008AC      10F4       0  CODE        2
                text39                         0008AC  000037  0008E3      1158       0  CODE        2
                text43                         0008E3  000039  00091C      11C6       0  CODE        2
                text48                         00091C  00003E  00095A      1238       0  CODE        2
                text42                         00095A  000044  00099E      12B4       0  CODE        2
                text13                         00099E  000044  0009E2      133C       0  CODE        2
                text1                          0009E2  00004B  000A2D      13C4       0  CODE        2
                text28                         000A2D  000051  000A7E      145A       0  CODE        2
                text26                         000A7E  000058  000AD6      14FC       0  CODE        2
                text30                         000AD6  000060  000B36      15AC       0  CODE        2
                text3                          000B36  000065  000B9B      166C       0  CODE        2
                text34                         000B9B  000069  000C04      1736       0  CODE        2
                text38                         000C04  00006E  000C72      1808       0  CODE        2
                text47                         000C72  000077  000CE9      18E4       0  CODE        2
                text45                         000CE9  000077  000D60      19D2       0  CODE        2
                text46                         000D60  000078  000DD8      1AC0       0  CODE        2
                text31                         000DD8  000088  000E60      1BB0       0  CODE        2
                text40                         000E60  00008A  000EEA      1CC0       0  CODE        2
                text35                         000EEA  00008B  000F75      1DD4       0  CODE        2
                text32                         000F75  00008B  001000      1EEA       0  CODE        2
                stringtext3                    001000  0000A5  0010A5      2000       0  STRCODE     2
                text53                         001676  000004  00167A      2CEC       0  CODE        2
                text51                         00167A  000004  00167E      2CF4       0  CODE        2
                text8                          00167E  000004  001682      2CFC       0  CODE        2
                text18                         001682  000009  00168B      2D04       0  CODE        2
                text17                         00168B  000009  001694      2D16       0  CODE        2
                text16                         001694  000009  00169D      2D28       0  CODE        2
                text15                         00169D  000009  0016A6      2D3A       0  CODE        2
                text14                         0016A6  000009  0016AF      2D4C       0  CODE        2
                clrtext                        0016AF  00000C  0016BB      2D5E       0  CODE        2
                text49                         0016BB  00000F  0016CA      2D76       0  CODE        2
                text12                         0016CA  00000F  0016D9      2D94       0  CODE        2
                text7                          0016D9  000013  0016EC      2DB2       0  CODE        2
                maintext                       0016EC  000013  0016FF      2DD8       0  CODE        2
                text11                         0016FF  000019  001718      2DFE       0  CODE        2
                text54                         001718  00001A  001732      2E30       0  CODE        2
                text2                          001732  00001C  00174E      2E64       0  CODE        2
                text10                         00174E  00001F  00176D      2E9C       0  CODE        2
                text23                         00176D  000020  00178D      2EDA       0  CODE        2
                text50                         00178D  000021  0017AE      2F1A       0  CODE        2
                text41                         0017AE  000025  0017D3      2F5C       0  CODE        2
                text24                         0017D3  00002D  001800      2FA6       0  CODE        2
                stringtext6                    001800  00001E  00181E      3000       0  STRCODE     2


UNUSED ADDRESS RANGES

        Name                Unused          Largest block    Delta
        BANK10           00520-0056F              50           1
        BANK11           005A0-005EF              50           1
        BANK12           00620-0064F              30           1
        BANK3            001EF-001EF               1           1
        BANK4            00265-0026F               B           1
        BANK5            002E0-002EF              10           1
        BANK6            00360-0036F              10           1
        BANK7            003A0-003EF              50           1
        BANK8            00420-0046F              50           1
        BANK9            004A0-004EF              50           1
        BIGRAM           02000-023EF             3F0           1
        CODE             00002-00003               2           2
                         007FF-00800               1
                         010A5-01675             5D1
                         0181E-01FFF             7E2
        CONST            00002-00003               2           2
                         007FF-00800               1
                         010A5-01675             100
                         0181E-01FFF             100
        ENTRY            00002-00003               2           2
                         007FF-00800               1
                         010A5-01675             100
                         0181E-01FFF             100
        IDLOC            08000-08003               4           2
        RAM              001EF-001EF               1           1
                         00265-0026F               B
                         002E0-002EF              10
                         00360-0036F              10
                         003A0-003EF              50
                         00420-0046F              50
                         004A0-004EF              50
                         00520-0056F              50
                         005A0-005EF              50
                         00620-0064F              30
        SFR0             00000-0001F              20           1
        SFR1             00080-0009F              20           1
        SFR10            00500-0051F              20           1
        SFR11            00580-0059F              20           1
        SFR12            00600-0061F              20           1
        SFR13            00680-006EF              70           1
        SFR14            00700-0076F              70           1
        SFR15            00780-007EF              70           1
        SFR16            00800-0086F              70           1
        SFR17            00880-008EF              70           1
        SFR18            00900-0096F              70           1
        SFR19            00980-009EF              70           1
        SFR2             00100-0011F              20           1
        SFR20            00A00-00A6F              70           1
        SFR21            00A80-00AEF              70           1
        SFR22            00B00-00B6F              70           1
        SFR23            00B80-00BEF              70           1
        SFR24            00C00-00C6F              70           1
        SFR25            00C80-00CEF              70           1
        SFR26            00D00-00D6F              70           1
        SFR27            00D80-00DEF              70           1
        SFR28            00E00-00E6F              70           1
        SFR29            00E80-00EEF              70           1
        SFR3             00180-0019F              20           1
        SFR30            00F00-00F6F              70           1
        SFR31            00F80-00FEF              70           1
        SFR4             00200-0021F              20           1
        SFR5             00280-0029F              20           1
        SFR6             00300-0031F              20           1
        SFR7             00380-0039F              20           1
        SFR8             00400-0041F              20           1
        SFR9             00480-0049F              20           1
        STACK            02220-023EF             1D0           1
        STRCODE          00002-00003               2           2
                         007FF-00800               2
                         010A5-01675             5D1
                         0181E-01FFF             7E2
        STRING           00002-00003               2           2
                         007FF-00800               1
                         010A5-01675             100
                         0181E-01FFF             100

                                  Symbol Table

?_USBTransferOnePacket                         cstackBANK1  000C0
?i1_USBTransferOnePacket                       cstackCOMMON 00070
CDCTxService@byte_to_send                      cstackBANK1  000CD
CDCTxService@i                                 cstackBANK1  000CC
EUSART_SetErrorHandler@interruptHandler        cstackBANK1  000C0
EUSART_SetFramingErrorHandler@interruptHandler cstackBANK1  000C0
EUSART_SetOverrunErrorHandler@interruptHandler cstackBANK1  000C0
EUSART_SetRxInterruptHandler@interruptHandler  cstackBANK1  000C0
EUSART_SetTxInterruptHandler@interruptHandler  cstackBANK1  000C0
EUSART_Write@txData                            cstackBANK1  000C1
USBConfigureEndpoint@EPNum                     cstackCOMMON 00075
USBConfigureEndpoint@direction                 cstackCOMMON 00070
USBConfigureEndpoint@handle                    cstackCOMMON 00076
USBCtrlTrfInHandler@lastDTS                    cstackCOMMON 00075
USBCtrlTrfRxService@byteToRead                 cstackCOMMON 00075
USBCtrlTrfRxService@i                          cstackCOMMON 00074
USBCtrlTrfTxService@byteToSend                 cstackCOMMON 00072
USBDeviceInit@i                                cstackBANK1  000C4
USBDeviceInit@i_1148                           cstackBANK1  000C3
USBDeviceInit@p                                cstackBANK1  000C1
USBDeviceTasks@i                               cstackBANK0h 0006C
USBEnableEndpoint@ep                           cstackCOMMON 0007C
USBEnableEndpoint@options                      cstackCOMMON 00077
USBEnableEndpoint@p                            cstackCOMMON 0007A
USBStdFeatureReqHandler@current_ep_data        cstackBANK0h 00062
USBStdFeatureReqHandler@p                      cstackBANK0h 00063
USBStdFeatureReqHandler@pUEP                   cstackBANK0h 00060
USBStdGetStatusHandler@p                       cstackCOMMON 00072
USBStdSetCfgHandler@i                          cstackBANK0h 00062
USBStdSetCfgHandler@i_1827                     cstackBANK0h 00061
USBStdSetCfgHandler@p                          cstackBANK0h 0005F
USBTransferOnePacket@data                      cstackBANK1  000C1
USBTransferOnePacket@dir                       cstackBANK1  000C0
USBTransferOnePacket@ep                        cstackBANK1  000C8
USBTransferOnePacket@handle                    cstackBANK1  000C9
USBTransferOnePacket@len                       cstackBANK1  000C3
USB_MainTask@i                                 cstackBANK3  001EE
USB_MainTask@numBytesRead                      cstackBANK3  001ED
USER_USB_CALLBACK_EVENT_HANDLER@event          cstackBANK0h 00058
USER_USB_CALLBACK_EVENT_HANDLER@pdata          cstackBANK0h 0005A
USER_USB_CALLBACK_EVENT_HANDLER@size           cstackBANK0h 0005C
_ACTCON                                        (abs)        0039B
_ANSELA                                        (abs)        0018C
_ANSELB                                        (abs)        0018D
_ANSELC                                        (abs)        0018E
_APFCON                                        (abs)        0011D
_BAUDCON                                       (abs)        0019F
_BDT                                           (abs)        00020
_BORCON                                        (abs)        00116
_BothEP0OutUOWNsSet                            bssBANK3     001DB
_CDCDataInHandle                               bssBANK3     001C8
_CDCDataOutHandle                              bssBANK3     001CA
_CDCInitEP                                     text39       008AC
_CDCTxService                                  text5        002F4
_CtrlTrfData                                   (abs)        000A0
_EUSART_DefaultErrorHandler                    text53       01676
_EUSART_DefaultFramingErrorHandler             text52       007FE
_EUSART_DefaultOverrunErrorHandler             text51       0167A
_EUSART_ErrorHandler                           bssBANK4     00248
_EUSART_FramingErrorHandler                    bssBANK4     0024C
_EUSART_Initialize                             text13       0099E
_EUSART_OverrunErrorHandler                    bssBANK4     0024A
_EUSART_Receive_ISR                            text48       0091C
_EUSART_RxDataHandler                          text54       01718
_EUSART_RxDefaultInterruptHandler              bssBANK4     0024E
_EUSART_SetErrorHandler                        text18       01682
_EUSART_SetFramingErrorHandler                 text17       0168B
_EUSART_SetOverrunErrorHandler                 text16       01694
_EUSART_SetRxInterruptHandler                  text15       0169D
_EUSART_SetTxInterruptHandler                  text14       016A6
_EUSART_Transmit_ISR                           text50       0178D
_EUSART_TxDefaultInterruptHandler              bssBANK4     00250
_EUSART_Write                                  text4        0084C
_INTCONbits                                    (abs)        0000B
_INTERRUPT_InterruptManager                    intentry     00004
_LATA                                          (abs)        0010C
_LATB                                          (abs)        0010D
_LATC                                          (abs)        0010E
_OPTION_REGbits                                (abs)        00095
_OSCCON                                        (abs)        00099
_OSCILLATOR_Initialize                         text12       016CA
_OSCTUNE                                       (abs)        00098
_PIE1bits                                      (abs)        00091
_PIE2bits                                      (abs)        00092
_PIN_MANAGER_Initialize                        text11       016FF
_PIR1bits                                      (abs)        00011
_PIR2bits                                      (abs)        00012
_PLLRDY                                        (abs)        004D6
_RCREG                                         (abs)        00199
_RCSTA                                         (abs)        0019D
_RCSTAbits                                     (abs)        0019D
_RemoteWakeup                                  bssBANK3     001DE
_SPBRGH                                        (abs)        0019C
_SPBRGL                                        (abs)        0019B
_SYSTEM_Initialize                             text7        016D9
_SetupPkt                                      (abs)        00050
_TRISA                                         (abs)        0008C
_TRISB                                         (abs)        0008D
_TRISC                                         (abs)        0008E
_TXREG                                         (abs)        0019A
_TXSTA                                         (abs)        0019E
_TXSTAbits                                     (abs)        0019E
_UADDR                                         (abs)        00E96
_UART_Read_Handler                             text49       016BB
_UCFG                                          (abs)        00E91
_UCON                                          (abs)        00E8E
_UCONbits                                      (abs)        00E8E
_UEIE                                          (abs)        00E97
_UEIR                                          (abs)        00E93
_UEP0                                          (abs)        00E98
_UEP0bits                                      (abs)        00E98
_UEP1                                          (abs)        00E99
_UIE                                           (abs)        00E92
_UIEbits                                       (abs)        00E92
_UIR                                           (abs)        00E90
_UIRbits                                       (abs)        00E90
_USB1msTickCount                               bssBANK4     00240
_USBActiveConfiguration                        bssBANK3     001EA
_USBAlternateInterface                         bssBANK3     001E8
_USBBusIsSuspended                             bssBANK3     001DD
_USBCheckCDCRequest                            text38       00C04
_USBCheckStdRequest                            text31       00DD8
_USBConfigureEndpoint                          text42       0095A
_USBCtrlEPAllowDataStage                       text30       00AD6
_USBCtrlEPAllowStatusStage                     text45       00CE9
_USBCtrlEPService                              text26       00A7E
_USBCtrlEPServiceComplete                      text29       006B2
_USBCtrlTrfInHandler                           text46       00D60
_USBCtrlTrfOutHandler                          text43       008E3
_USBCtrlTrfRxService                           text44       0055C
_USBCtrlTrfSetupHandler                        text28       00A2D
_USBCtrlTrfTxService                           text47       00C72
_USBDeferINDataStagePackets                    bssBANK3     001D6
_USBDeferOUTDataStagePackets                   bssBANK3     001D5
_USBDeferStatusStagePacket                     bssBANK3     001D9
_USBDeviceAttach                               text10       0174E
_USBDeviceInit                                 text9        004A8
_USBDeviceState                                bssBANK3     001E2
_USBDeviceTasks                                text20       001CE
_USBEnableEndpoint                             text41       017AE
_USBIncrement1msInternalTimers                 text25       00801
_USBStallHandler                               text24       017D3
_USBStatusStageEnabledFlag1                    bssBANK3     001D8
_USBStatusStageEnabledFlag2                    bssBANK3     001D7
_USBStatusStageTimeoutCounter                  bssBANK3     001DA
_USBStdFeatureReqHandler                       text36       00074
_USBStdGetDscHandler                           text35       00EEA
_USBStdGetStatusHandler                        text34       00B9B
_USBStdSetCfgHandler                           text32       00F75
_USBSuspend                                    text23       0176D
_USBTicksSinceSuspendEnd                       bssBANK3     001D4
_USBTransferOnePacket                          text6        00751
_USBWakeFromSuspend                            text22       007DC
_USB_CD_Ptr                                    stringtext2  0181C
_USB_MainTask                                  text1        009E2
_USB_SD_Ptr                                    stringtext1  01812
_USER_USB_CALLBACK_EVENT_HANDLER               text37       0087A
_USTAT                                         (abs)        00E8F
_USTATcopy                                     bssBANK1     000CF
_WDTCON                                        (abs)        00097
_WDT_Initialize                                text8        0167E
_WPUA                                          (abs)        0020C
_WPUB                                          (abs)        0020D
__Habs1                                        abs1         00000
__Hbank0                                       bank0        00000
__Hbank1                                       bank1        00000
__Hbank10                                      bank10       00000
__Hbank11                                      bank11       00000
__Hbank12                                      bank12       00000
__Hbank13                                      bank13       00000
__Hbank14                                      bank14       00000
__Hbank15                                      bank15       00000
__Hbank16                                      bank16       00000
__Hbank17                                      bank17       00000
__Hbank18                                      bank18       00000
__Hbank19                                      bank19       00000
__Hbank2                                       bank2        00000
__Hbank20                                      bank20       00000
__Hbank21                                      bank21       00000
__Hbank22                                      bank22       00000
__Hbank23                                      bank23       00000
__Hbank24                                      bank24       00000
__Hbank25                                      bank25       00000
__Hbank26                                      bank26       00000
__Hbank27                                      bank27       00000
__Hbank28                                      bank28       00000
__Hbank29                                      bank29       00000
__Hbank3                                       bank3        00000
__Hbank30                                      bank30       00000
__Hbank31                                      bank31       00000
__Hbank4                                       bank4        00000
__Hbank5                                       bank5        00000
__Hbank6                                       bank6        00000
__Hbank7                                       bank7        00000
__Hbank8                                       bank8        00000
__Hbank9                                       bank9        00000
__Hbigram                                      bigram       00000
__HbssBANK0h                                   bssBANK0h    00000
__HbssBANK1                                    bssBANK1     00000
__HbssBANK3                                    bssBANK3     00000
__HbssBANK4                                    bssBANK4     00000
__HbssBANK5                                    bssBANK5     00000
__HbssBANK6                                    bssBANK6     00000
__Hcinit                                       cinit        00074
__Hclrtext                                     clrtext      00000
__Hcode                                        code         00000
__Hcommon                                      common       00000
__Hconfig                                      config       08009
__HcstackBANK0h                                cstackBANK0h 00000
__HcstackBANK1                                 cstackBANK1  00000
__HcstackBANK3                                 cstackBANK3  00000
__HcstackCOMMON                                cstackCOMMON 00000
__Heeprom_data                                 eeprom_data  00000
__Hend_init                                    end_init     0003E
__Hfunctab                                     functab      00000
__Hinit                                        init         0003C
__Hintentry                                    intentry     0003C
__Hmaintext                                    maintext     00000
__Hpowerup                                     powerup      00000
__Hram                                         ram          00000
__Hreset_vec                                   reset_vec    00002
__Hsfr0                                        sfr0         00000
__Hsfr1                                        sfr1         00000
__Hsfr10                                       sfr10        00000
__Hsfr11                                       sfr11        00000
__Hsfr12                                       sfr12        00000
__Hsfr13                                       sfr13        00000
__Hsfr14                                       sfr14        00000
__Hsfr15                                       sfr15        00000
__Hsfr16                                       sfr16        00000
__Hsfr17                                       sfr17        00000
__Hsfr18                                       sfr18        00000
__Hsfr19                                       sfr19        00000
__Hsfr2                                        sfr2         00000
__Hsfr20                                       sfr20        00000
__Hsfr21                                       sfr21        00000
__Hsfr22                                       sfr22        00000
__Hsfr23                                       sfr23        00000
__Hsfr24                                       sfr24        00000
__Hsfr25                                       sfr25        00000
__Hsfr26                                       sfr26        00000
__Hsfr27                                       sfr27        00000
__Hsfr28                                       sfr28        00000
__Hsfr29                                       sfr29        00000
__Hsfr3                                        sfr3         00000
__Hsfr30                                       sfr30        00000
__Hsfr31                                       sfr31        00000
__Hsfr4                                        sfr4         00000
__Hsfr5                                        sfr5         00000
__Hsfr6                                        sfr6         00000
__Hsfr7                                        sfr7         00000
__Hsfr8                                        sfr8         00000
__Hsfr9                                        sfr9         00000
__Hspace_0                                     (abs)        0181E
__Hspace_1                                     (abs)        00360
__Hspace_2                                     (abs)        00000
__Hspace_3                                     (abs)        00000
__Hspace_4                                     (abs)        10010
__Hstack                                       stack        00000
__Hstrings                                     strings      00000
__Hstringtext1                                 stringtext1  00000
__Hstringtext2                                 stringtext2  00000
__Hstringtext3                                 stringtext3  00000
__Hstringtext4                                 stringtext4  00000
__Hstringtext5                                 stringtext5  00000
__Hstringtext6                                 stringtext6  00000
__Hstringtext7                                 stringtext7  00000
__Htext                                        text         00000
__Labs1                                        abs1         00000
__Lbank0                                       bank0        00000
__Lbank1                                       bank1        00000
__Lbank10                                      bank10       00000
__Lbank11                                      bank11       00000
__Lbank12                                      bank12       00000
__Lbank13                                      bank13       00000
__Lbank14                                      bank14       00000
__Lbank15                                      bank15       00000
__Lbank16                                      bank16       00000
__Lbank17                                      bank17       00000
__Lbank18                                      bank18       00000
__Lbank19                                      bank19       00000
__Lbank2                                       bank2        00000
__Lbank20                                      bank20       00000
__Lbank21                                      bank21       00000
__Lbank22                                      bank22       00000
__Lbank23                                      bank23       00000
__Lbank24                                      bank24       00000
__Lbank25                                      bank25       00000
__Lbank26                                      bank26       00000
__Lbank27                                      bank27       00000
__Lbank28                                      bank28       00000
__Lbank29                                      bank29       00000
__Lbank3                                       bank3        00000
__Lbank30                                      bank30       00000
__Lbank31                                      bank31       00000
__Lbank4                                       bank4        00000
__Lbank5                                       bank5        00000
__Lbank6                                       bank6        00000
__Lbank7                                       bank7        00000
__Lbank8                                       bank8        00000
__Lbank9                                       bank9        00000
__Lbigram                                      bigram       00000
__LbssBANK0h                                   bssBANK0h    00000
__LbssBANK1                                    bssBANK1     00000
__LbssBANK3                                    bssBANK3     00000
__LbssBANK4                                    bssBANK4     00000
__LbssBANK5                                    bssBANK5     00000
__LbssBANK6                                    bssBANK6     00000
__Lcinit                                       cinit        0003E
__Lclrtext                                     clrtext      00000
__Lcode                                        code         00000
__Lcommon                                      common       00000
__Lconfig                                      config       00000
__LcstackBANK0h                                cstackBANK0h 00000
__LcstackBANK1                                 cstackBANK1  00000
__LcstackBANK3                                 cstackBANK3  00000
__LcstackCOMMON                                cstackCOMMON 00000
__Leeprom_data                                 eeprom_data  00000
__Lend_init                                    end_init     0003C
__Lfunctab                                     functab      00000
__Linit                                        init         0003C
__Lintentry                                    intentry     00004
__Lmaintext                                    maintext     00000
__Lpowerup                                     powerup      00000
__Lram                                         ram          00000
__Lreset_vec                                   reset_vec    00000
__Lsfr0                                        sfr0         00000
__Lsfr1                                        sfr1         00000
__Lsfr10                                       sfr10        00000
__Lsfr11                                       sfr11        00000
__Lsfr12                                       sfr12        00000
__Lsfr13                                       sfr13        00000
__Lsfr14                                       sfr14        00000
__Lsfr15                                       sfr15        00000
__Lsfr16                                       sfr16        00000
__Lsfr17                                       sfr17        00000
__Lsfr18                                       sfr18        00000
__Lsfr19                                       sfr19        00000
__Lsfr2                                        sfr2         00000
__Lsfr20                                       sfr20        00000
__Lsfr21                                       sfr21        00000
__Lsfr22                                       sfr22        00000
__Lsfr23                                       sfr23        00000
__Lsfr24                                       sfr24        00000
__Lsfr25                                       sfr25        00000
__Lsfr26                                       sfr26        00000
__Lsfr27                                       sfr27        00000
__Lsfr28                                       sfr28        00000
__Lsfr29                                       sfr29        00000
__Lsfr3                                        sfr3         00000
__Lsfr30                                       sfr30        00000
__Lsfr31                                       sfr31        00000
__Lsfr4                                        sfr4         00000
__Lsfr5                                        sfr5         00000
__Lsfr6                                        sfr6         00000
__Lsfr7                                        sfr7         00000
__Lsfr8                                        sfr8         00000
__Lsfr9                                        sfr9         00000
__Lspace_0                                     (abs)        00000
__Lspace_1                                     (abs)        00000
__Lspace_2                                     (abs)        00000
__Lspace_3                                     (abs)        00000
__Lspace_4                                     (abs)        00000
__Lstack                                       stack        00000
__Lstrings                                     strings      00000
__Lstringtext1                                 stringtext1  00000
__Lstringtext2                                 stringtext2  00000
__Lstringtext3                                 stringtext3  00000
__Lstringtext4                                 stringtext4  00000
__Lstringtext5                                 stringtext5  00000
__Lstringtext6                                 stringtext6  00000
__Lstringtext7                                 stringtext7  00000
__Ltext                                        text         00000
__S0                                           (abs)        0181E
__S1                                           (abs)        00360
__S2                                           (abs)        00000
___int_sp                                      stack        00000
___latbits                                     (abs)        00002
___sp                                          stack        00000
___stackhi                                     (abs)        023EF
___stacklo                                     (abs)        02220
__end_of_CDCInitEP                             text39       008E3
__end_of_CDCTxService                          text5        003DE
__end_of_EUSART_DefaultErrorHandler            text53       0167A
__end_of_EUSART_DefaultFramingErrorHandler     text52       007FF
__end_of_EUSART_DefaultOverrunErrorHandler     text51       0167E
__end_of_EUSART_Initialize                     text13       009E2
__end_of_EUSART_Receive_ISR                    text48       0095A
__end_of_EUSART_RxDataHandler                  text54       01732
__end_of_EUSART_SetErrorHandler                text18       0168B
__end_of_EUSART_SetFramingErrorHandler         text17       01694
__end_of_EUSART_SetOverrunErrorHandler         text16       0169D
__end_of_EUSART_SetRxInterruptHandler          text15       016A6
__end_of_EUSART_SetTxInterruptHandler          text14       016AF
__end_of_EUSART_Transmit_ISR                   text50       017AE
__end_of_EUSART_Write                          text4        0087A
__end_of_INTERRUPT_InterruptManager            intentry     0003C
__end_of_OSCILLATOR_Initialize                 text12       016D9
__end_of_PIN_MANAGER_Initialize                text11       01718
__end_of_SYSTEM_Initialize                     text7        016EC
__end_of_UART_Read_Handler                     text49       016CA
__end_of_USBCheckCDCRequest                    text38       00C72
__end_of_USBCheckStdRequest                    text31       00E60
__end_of_USBConfigureEndpoint                  text42       0099E
__end_of_USBCtrlEPAllowDataStage               text30       00B36
__end_of_USBCtrlEPAllowStatusStage             text45       00D60
__end_of_USBCtrlEPService                      text26       00AD6
__end_of_USBCtrlEPServiceComplete              text29       00751
__end_of_USBCtrlTrfInHandler                   text46       00DD8
__end_of_USBCtrlTrfOutHandler                  text43       0091C
__end_of_USBCtrlTrfRxService                   text44       00608
__end_of_USBCtrlTrfSetupHandler                text28       00A7E
__end_of_USBCtrlTrfTxService                   text47       00CE9
__end_of_USBDeviceAttach                       text10       0176D
__end_of_USBDeviceInit                         text9        0055C
__end_of_USBDeviceTasks                        text20       002F4
__end_of_USBEnableEndpoint                     text41       017D3
__end_of_USBIncrement1msInternalTimers         text25       0081E
__end_of_USBStallHandler                       text24       01800
__end_of_USBStdFeatureReqHandler               text36       001CE
__end_of_USBStdGetDscHandler                   text35       00F75
__end_of_USBStdGetStatusHandler                text34       00C04
__end_of_USBStdSetCfgHandler                   text32       01000
__end_of_USBSuspend                            text23       0178D
__end_of_USBTransferOnePacket                  text6        007DC
__end_of_USBWakeFromSuspend                    text22       007FE
__end_of_USB_CD_Ptr                            stringtext2  0181E
__end_of_USB_MainTask                          text1        00A2D
__end_of_USB_SD_Ptr                            stringtext1  01818
__end_of_USER_USB_CALLBACK_EVENT_HANDLER       text37       008AC
__end_of_WDT_Initialize                        text8        01682
__end_of__initialization                       cinit        00070
__end_of_configDescriptor1                     stringtext3  01043
__end_of_device_dsc                            stringtext6  01812
__end_of_getsUSBUSART                          text3        00B9B
__end_of_main                                  maintext     016FF
__end_of_memcpy                                text27       0084C
__end_of_memset                                text33       004A8
__end_of_putUSBUSART                           text2        0174E
__end_of_sd000                                 stringtext7  0181C
__end_of_sd001                                 stringtext4  01077
__end_of_sd002                                 stringtext5  010A5
__end_ofi1_USBDeviceInit                       text21       006B2
__end_ofi1_USBTransferOnePacket                text40       00EEA
__initialization                               cinit        0003E
__pbssBANK0h                                   bssBANK0h    0006D
__pbssBANK1                                    bssBANK1     000CF
__pbssBANK3                                    bssBANK3     001B0
__pbssBANK4                                    bssBANK4     00220
__pbssBANK5                                    bssBANK5     002A0
__pbssBANK6                                    bssBANK6     00320
__pcstackBANK0h                                cstackBANK0h 00058
__pcstackBANK1                                 cstackBANK1  000C0
__pcstackBANK3                                 cstackBANK3  001EB
__pcstackCOMMON                                cstackCOMMON 00070
__pintentry                                    intentry     00004
__pmaintext                                    maintext     016EC
__pstringtext1                                 stringtext1  01812
__pstringtext2                                 stringtext2  0181C
__pstringtext3                                 stringtext3  01000
__pstringtext4                                 stringtext4  01043
__pstringtext5                                 stringtext5  01077
__pstringtext6                                 stringtext6  01800
__pstringtext7                                 stringtext7  01818
__ptext1                                       text1        009E2
__ptext10                                      text10       0174E
__ptext11                                      text11       016FF
__ptext12                                      text12       016CA
__ptext13                                      text13       0099E
__ptext14                                      text14       016A6
__ptext15                                      text15       0169D
__ptext16                                      text16       01694
__ptext17                                      text17       0168B
__ptext18                                      text18       01682
__ptext2                                       text2        01732
__ptext20                                      text20       001CE
__ptext21                                      text21       00608
__ptext22                                      text22       007DC
__ptext23                                      text23       0176D
__ptext24                                      text24       017D3
__ptext25                                      text25       00801
__ptext26                                      text26       00A7E
__ptext27                                      text27       0081E
__ptext28                                      text28       00A2D
__ptext29                                      text29       006B2
__ptext3                                       text3        00B36
__ptext30                                      text30       00AD6
__ptext31                                      text31       00DD8
__ptext32                                      text32       00F75
__ptext33                                      text33       003DE
__ptext34                                      text34       00B9B
__ptext35                                      text35       00EEA
__ptext36                                      text36       00074
__ptext37                                      text37       0087A
__ptext38                                      text38       00C04
__ptext39                                      text39       008AC
__ptext4                                       text4        0084C
__ptext40                                      text40       00E60
__ptext41                                      text41       017AE
__ptext42                                      text42       0095A
__ptext43                                      text43       008E3
__ptext44                                      text44       0055C
__ptext45                                      text45       00CE9
__ptext46                                      text46       00D60
__ptext47                                      text47       00C72
__ptext48                                      text48       0091C
__ptext49                                      text49       016BB
__ptext5                                       text5        002F4
__ptext50                                      text50       0178D
__ptext51                                      text51       0167A
__ptext52                                      text52       007FE
__ptext53                                      text53       01676
__ptext54                                      text54       01718
__ptext6                                       text6        00751
__ptext7                                       text7        016D9
__ptext8                                       text8        0167E
__ptext9                                       text9        004A8
__size_of_CDCInitEP                            (abs)        00000
__size_of_CDCTxService                         (abs)        00000
__size_of_EUSART_DefaultErrorHandler           (abs)        00000
__size_of_EUSART_DefaultFramingErrorHandler    (abs)        00000
__size_of_EUSART_DefaultOverrunErrorHandler    (abs)        00000
__size_of_EUSART_Initialize                    (abs)        00000
__size_of_EUSART_Receive_ISR                   (abs)        00000
__size_of_EUSART_RxDataHandler                 (abs)        00000
__size_of_EUSART_SetErrorHandler               (abs)        00000
__size_of_EUSART_SetFramingErrorHandler        (abs)        00000
__size_of_EUSART_SetOverrunErrorHandler        (abs)        00000
__size_of_EUSART_SetRxInterruptHandler         (abs)        00000
__size_of_EUSART_SetTxInterruptHandler         (abs)        00000
__size_of_EUSART_Transmit_ISR                  (abs)        00000
__size_of_EUSART_Write                         (abs)        00000
__size_of_INTERRUPT_InterruptManager           (abs)        00000
__size_of_OSCILLATOR_Initialize                (abs)        00000
__size_of_PIN_MANAGER_Initialize               (abs)        00000
__size_of_SYSTEM_Initialize                    (abs)        00000
__size_of_UART_Read_Handler                    (abs)        00000
__size_of_USBCheckCDCRequest                   (abs)        00000
__size_of_USBCheckStdRequest                   (abs)        00000
__size_of_USBConfigureEndpoint                 (abs)        00000
__size_of_USBCtrlEPAllowDataStage              (abs)        00000
__size_of_USBCtrlEPAllowStatusStage            (abs)        00000
__size_of_USBCtrlEPService                     (abs)        00000
__size_of_USBCtrlEPServiceComplete             (abs)        00000
__size_of_USBCtrlTrfInHandler                  (abs)        00000
__size_of_USBCtrlTrfOutHandler                 (abs)        00000
__size_of_USBCtrlTrfRxService                  (abs)        00000
__size_of_USBCtrlTrfSetupHandler               (abs)        00000
__size_of_USBCtrlTrfTxService                  (abs)        00000
__size_of_USBDeviceAttach                      (abs)        00000
__size_of_USBDeviceInit                        (abs)        00000
__size_of_USBDeviceTasks                       (abs)        00000
__size_of_USBEnableEndpoint                    (abs)        00000
__size_of_USBIncrement1msInternalTimers        (abs)        00000
__size_of_USBStallHandler                      (abs)        00000
__size_of_USBStdFeatureReqHandler              (abs)        00000
__size_of_USBStdGetDscHandler                  (abs)        00000
__size_of_USBStdGetStatusHandler               (abs)        00000
__size_of_USBStdSetCfgHandler                  (abs)        00000
__size_of_USBSuspend                           (abs)        00000
__size_of_USBTransferOnePacket                 (abs)        00000
__size_of_USBWakeFromSuspend                   (abs)        00000
__size_of_USB_MainTask                         (abs)        00000
__size_of_USER_USB_CALLBACK_EVENT_HANDLER      (abs)        00000
__size_of_WDT_Initialize                       (abs)        00000
__size_of_getsUSBUSART                         (abs)        00000
__size_of_main                                 (abs)        00000
__size_of_memcpy                               (abs)        00000
__size_of_memset                               (abs)        00000
__size_of_putUSBUSART                          (abs)        00000
__size_ofi1_USBDeviceInit                      (abs)        00000
__size_ofi1_USBTransferOnePacket               (abs)        00000
_cdc_data_rx                                   (abs)        020C0
_cdc_data_tx                                   (abs)        02080
_cdc_mem_type                                  bssBANK3     001E4
_cdc_rx_len                                    bssBANK3     001E7
_cdc_trf_state                                 bssBANK3     001E6
_cdc_tx_len                                    bssBANK3     001E5
_configDescriptor1                             stringtext3  01000
_controlTransferState                          bssBANK3     001E0
_control_signal_bitmap                         bssBANK3     001E3
_device_dsc                                    stringtext6  01800
_dummy_encapsulated_cmd_response               bssBANK4     00256
_endpoint_number                               bssBANK3     001DC
_ep_data_in                                    bssBANK3     001C5
_ep_data_out                                   bssBANK3     001C2
_eusartRxBuffer                                bssBANK4     00232
_eusartRxCount                                 bssBANK3     001CE
_eusartRxHead                                  bssBANK3     001D0
_eusartRxLastError                             bssBANK3     001CD
_eusartRxStatusBuffer                          bssBANK4     0022A
_eusartRxTail                                  bssBANK3     001CF
_eusartTxBuffer                                bssBANK6     00320
_eusartTxBufferRemaining                       bssBANK3     001D1
_eusartTxHead                                  bssBANK3     001D3
_eusartTxTail                                  bssBANK3     001D2
_getsUSBUSART                                  text3        00B36
_inPipes                                       bssBANK3     001BD
_line_coding                                   bssBANK4     0025E
_main                                          maintext     016EC
_memcpy                                        text27       0081E
_memset                                        text33       003DE
_outPipes                                      bssBANK3     001B0
_pBDTEntryEP0OutCurrent                        bssBANK0h    0006F
_pBDTEntryEP0OutNext                           bssBANK0h    0006D
_pBDTEntryIn                                   bssBANK3     001B7
_pBDTEntryOut                                  bssBANK4     0023A
_pCDCDst                                       bssBANK4     00252
_pCDCSrc                                       bssBANK4     00254
_pDst                                          bssBANK3     001DF
_putUSBUSART                                   text2        01732
_readBuffer                                    bssBANK5     002C0
_sd000                                         stringtext7  01818
_sd001                                         stringtext4  01043
_sd002                                         stringtext5  01077
_shortPacketStatus                             bssBANK3     001E1
_wbi                                           bssBANK3     001CC
_writeBuffer                                   bssBANK5     002A0
btemp                                          (abs)        0007E
clear_ram0                                     clrtext      016AF
end_of_initialization                          cinit        00070
getsUSBUSART@buffer                            cstackBANK1  000CE
getsUSBUSART@len                               cstackBANK1  000CB
i1USBDeviceInit@i                              cstackCOMMON 00074
i1USBDeviceInit@i_1148                         cstackCOMMON 00073
i1USBDeviceInit@p                              cstackCOMMON 00071
i1USBTransferOnePacket@data                    cstackCOMMON 00071
i1USBTransferOnePacket@dir                     cstackCOMMON 00070
i1USBTransferOnePacket@ep                      cstackCOMMON 00078
i1USBTransferOnePacket@handle                  cstackCOMMON 00079
i1USBTransferOnePacket@len                     cstackCOMMON 00073
i1_USBDeviceInit                               text21       00608
i1_USBTransferOnePacket                        text40       00E60
int$flags                                      (abs)        0007E
intlevel0                                      functab      00000
intlevel1                                      functab      00000
intlevel2                                      functab      00000
intlevel3                                      functab      00000
intlevel4                                      functab      00000
intlevel5                                      functab      00000
memcpy@d                                       cstackCOMMON 00079
memcpy@d1                                      cstackCOMMON 00078
memcpy@n                                       cstackCOMMON 00072
memcpy@s                                       cstackCOMMON 00075
memcpy@s1                                      cstackCOMMON 00070
memcpy@tmp                                     cstackCOMMON 00077
memset@c                                       cstackCOMMON 00072
memset@dest                                    cstackCOMMON 00070
memset@k                                       cstackCOMMON 0007A
memset@n                                       cstackCOMMON 00074
memset@s                                       cstackCOMMON 0007C
putUSBUSART@data                               cstackBANK1  000C2
putUSBUSART@length                             cstackBANK1  000C0
reset_vec                                      reset_vec    00000
start                                          init         0003C
start_initialization                           cinit        0003E
wtemp0                                         (abs)        0007E


MODULE INFORMATION

Module		Function		Class		Link	Load	Size
C:\Program Files\Microchip\xc8\v2.32\pic\sources\c99\common\memset.c
		_memset        		CODE           	03DE	0000	202

C:\Program Files\Microchip\xc8\v2.32\pic\sources\c99\common\memset.c estimated size: 202

mcc_generated_files/interrupt_manager.c
		_INTERRUPT_InterruptManager		CODE           	0004	0000	56

mcc_generated_files/interrupt_manager.c estimated size: 56

mcc_generated_files/pin_manager.c
		_PIN_MANAGER_Initialize		CODE           	16FF	0000	25

mcc_generated_files/pin_manager.c estimated size: 25

C:\Program Files\Microchip\xc8\v2.32\pic\sources\c99\common\memcpy.c
		_memcpy        		CODE           	081E	0000	46

C:\Program Files\Microchip\xc8\v2.32\pic\sources\c99\common\memcpy.c estimated size: 46

mcc_generated_files/usb/usb_device_cdc.c
		_CDCTxService  		CODE           	02F4	0000	234
		_CDCInitEP     		CODE           	08AC	0000	55
		_putUSBUSART   		CODE           	1732	0000	28
		_getsUSBUSART  		CODE           	0B36	0000	101
		_USBCheckCDCRequest		CODE           	0C04	0000	110

mcc_generated_files/usb/usb_device_cdc.c estimated size: 528

shared
		_configDescriptor1		STRCODE        	1000	0000	67
		_USB_CD_Ptr    		STRCODE        	181C	0000	2
		_sd001         		STRCODE        	1043	0000	52
		_sd002         		STRCODE        	1077	0000	46
		i1_USBDeviceInit		CODE           	0608	0000	170
		__initialization		CODE           	003E	0000	50
		_device_dsc    		STRCODE        	1800	0000	18
		_USB_SD_Ptr    		STRCODE        	1812	0000	6
		_sd000         		STRCODE        	1818	0000	4
		i1_USBTransferOnePacket		CODE           	0E60	0000	138

shared estimated size: 553

mcc_generated_files/usb/usb_device_events.c
		_USER_USB_CALLBACK_EVENT_HANDLER		CODE           	087A	0000	50

mcc_generated_files/usb/usb_device_events.c estimated size: 50

mcc_generated_files/mcc.c
		_WDT_Initialize		CODE           	167E	0000	4
		_OSCILLATOR_Initialize		CODE           	16CA	0000	15
		_SYSTEM_Initialize		CODE           	16D9	0000	19

mcc_generated_files/mcc.c estimated size: 38

mcc_generated_files/eusart.c
		_EUSART_SetRxInterruptHandler		CODE           	169D	0000	9
		_EUSART_SetTxInterruptHandler		CODE           	16A6	0000	9
		_EUSART_DefaultOverrunErrorHandler		CODE           	167A	0000	4
		_EUSART_Write  		CODE           	084C	0000	46
		_EUSART_DefaultErrorHandler		CODE           	1676	0000	4
		_EUSART_Transmit_ISR		CODE           	178D	0000	33
		_EUSART_Initialize		CODE           	099E	0000	68
		_EUSART_SetFramingErrorHandler		CODE           	168B	0000	9
		_EUSART_SetErrorHandler		CODE           	1682	0000	9
		_EUSART_SetOverrunErrorHandler		CODE           	1694	0000	9
		_EUSART_Receive_ISR		CODE           	091C	0000	62
		_EUSART_RxDataHandler		CODE           	1718	0000	26
		_EUSART_DefaultFramingErrorHandler		CODE           	07FE	0000	1

mcc_generated_files/eusart.c estimated size: 289

main.c
		_main          		CODE           	16EC	0000	19
		_UART_Read_Handler		CODE           	16BB	0000	15
		_USB_MainTask  		CODE           	09E2	0000	75

main.c estimated size: 109

mcc_generated_files/usb/usb_device.c
		_USBCtrlTrfInHandler		CODE           	0D60	0000	120
		_USBTransferOnePacket		CODE           	0751	0000	139
		_USBDeviceAttach		CODE           	174E	0000	31
		_USBStdGetDscHandler		CODE           	0EEA	0000	139
		_USBCtrlEPAllowDataStage		CODE           	0AD6	0000	96
		_USBStdFeatureReqHandler		CODE           	0074	0000	346
		_USBCtrlEPAllowStatusStage		CODE           	0CE9	0000	119
		_USBCtrlTrfSetupHandler		CODE           	0A2D	0000	81
		_USBCtrlTrfOutHandler		CODE           	08E3	0000	57
		_USBCtrlEPServiceComplete		CODE           	06B2	0000	159
		_USBSuspend    		CODE           	176D	0000	32
		_USBStdSetCfgHandler		CODE           	0F75	0000	139
		_USBStdGetStatusHandler		CODE           	0B9B	0000	105
		_USBWakeFromSuspend		CODE           	07DC	0000	34
		_USBCtrlTrfRxService		CODE           	055C	0000	172
		_USBCtrlTrfTxService		CODE           	0C72	0000	119
		_USBEnableEndpoint		CODE           	17AE	0000	37
		_USBConfigureEndpoint		CODE           	095A	0000	68
		_USBDeviceInit 		CODE           	04A8	0000	180
		_USBIncrement1msInternalTimers		CODE           	0801	0000	29
		_USBCtrlEPService		CODE           	0A7E	0000	88
		_USBStallHandler		CODE           	17D3	0000	45
		_USBDeviceTasks		CODE           	01CE	0000	294
		_USBCheckStdRequest		CODE           	0DD8	0000	136

mcc_generated_files/usb/usb_device.c estimated size: 2765

